; Function Attrs: mustprogress ssp uwtable
define noundef ptr @_ZN6open3d4core13MemoryManager6MallocEmRKNS0_6DeviceE(i64 noundef %0, ptr noundef nonnull align 4 dereferenceable(8) %1) local_unnamed_addr #0 align 2 personality ptr @__gxx_personality_v0 {
  %3 = alloca %"class.std::shared_ptr", align 8
  call void @llvm.lifetime.start.p0(i64 16, ptr nonnull %3) #29
  call void @_ZN6open3d4core13MemoryManager22GetMemoryManagerDeviceERKNS0_6DeviceE(ptr dead_on_unwind nonnull writable sret(%"class.std::shared_ptr") align 8 %3, ptr noundef nonnull align 4 dereferenceable(8) %1)
  %4 = load ptr, ptr %3, align 8, !tbaa !4
  %5 = load ptr, ptr %4, align 8, !tbaa !12
  %6 = getelementptr inbounds nuw i8, ptr %5, i64 16
  %7 = load ptr, ptr %6, align 8
  %8 = invoke noundef ptr %7(ptr noundef nonnull align 8 dereferenceable(8) %4, i64 noundef %0, ptr noundef nonnull align 4 dereferenceable(8) %1)
          to label %9 unwind label %34

9:                                                ; preds = %2
  %10 = getelementptr inbounds nuw i8, ptr %3, i64 8
  %11 = load ptr, ptr %10, align 8, !tbaa !14
  %.not.i.i = icmp eq ptr %11, null
  br i1 %.not.i.i, label %_ZNSt12__shared_ptrIN6open3d4core19MemoryManagerDeviceELN9__gnu_cxx12_Lock_policyE2EED2Ev.exit, label %12

12:                                               ; preds = %9
  %13 = getelementptr inbounds nuw i8, ptr %11, i64 8
  %14 = load atomic i64, ptr %13 acquire, align 8
  %15 = icmp eq i64 %14, 4294967297
  %16 = trunc i64 %14 to i32
  br i1 %15, label %17, label %25

17:                                               ; preds = %12
  store i32 0, ptr %13, align 8, !tbaa !15
  %18 = getelementptr inbounds nuw i8, ptr %11, i64 12
  store i32 0, ptr %18, align 4, !tbaa !18
  %19 = load ptr, ptr %11, align 8, !tbaa !12
  %20 = getelementptr inbounds nuw i8, ptr %19, i64 16
  %21 = load ptr, ptr %20, align 8
  tail call void %21(ptr noundef nonnull align 8 dereferenceable(16) %11) #29
  %22 = load ptr, ptr %11, align 8, !tbaa !12
  %23 = getelementptr inbounds nuw i8, ptr %22, i64 24
  %24 = load ptr, ptr %23, align 8
  tail call void %24(ptr noundef nonnull align 8 dereferenceable(16) %11) #29
  br label %_ZNSt12__shared_ptrIN6open3d4core19MemoryManagerDeviceELN9__gnu_cxx12_Lock_policyE2EED2Ev.exit

25:                                               ; preds = %12
  %26 = load i8, ptr @__libc_single_threaded, align 1, !tbaa !19
  %.not.i.i.i = icmp eq i8 %26, 0
  br i1 %.not.i.i.i, label %29, label %27

27:                                               ; preds = %25
  %28 = add nsw i32 %16, -1
  store i32 %28, ptr %13, align 4, !tbaa !20
  br label %_ZN9__gnu_cxx27__exchange_and_add_dispatchEPii.exit.i.i.i

29:                                               ; preds = %25
  %30 = atomicrmw volatile add ptr %13, i32 -1 acq_rel, align 4
  br label %_ZN9__gnu_cxx27__exchange_and_add_dispatchEPii.exit.i.i.i

_ZN9__gnu_cxx27__exchange_and_add_dispatchEPii.exit.i.i.i: ; preds = %29, %27
  %.0.i.i.i.i = phi i32 [ %16, %27 ], [ %30, %29 ]
  %31 = icmp eq i32 %.0.i.i.i.i, 1
  br i1 %31, label %32, label %_ZNSt12__shared_ptrIN6open3d4core19MemoryManagerDeviceELN9__gnu_cxx12_Lock_policyE2EED2Ev.exit, !prof !21

32:                                               ; preds = %_ZN9__gnu_cxx27__exchange_and_add_dispatchEPii.exit.i.i.i
  tail call void @_ZNSt16_Sp_counted_baseILN9__gnu_cxx12_Lock_policyE2EE24_M_release_last_use_coldEv(ptr noundef nonnull align 8 dereferenceable(16) %11) #29
  br label %_ZNSt12__shared_ptrIN6open3d4core19MemoryManagerDeviceELN9__gnu_cxx12_Lock_policyE2EED2Ev.exit

_ZNSt12__shared_ptrIN6open3d4core19MemoryManagerDeviceELN9__gnu_cxx12_Lock_policyE2EED2Ev.exit: ; preds = %9, %17, %_ZN9__gnu_cxx27__exchange_and_add_dispatchEPii.exit.i.i.i, %32
  call void @llvm.lifetime.end.p0(i64 16, ptr nonnull %3) #29
  %33 = tail call noundef nonnull align 8 dereferenceable(96) ptr @_ZN6open3d4core22MemoryManagerStatistic11GetInstanceEv()
  tail call void @_ZN6open3d4core22MemoryManagerStatistic11CountMallocEPvmRKNS0_6DeviceE(ptr noundef nonnull align 8 dereferenceable(96) %33, ptr noundef %8, i64 noundef %0, ptr noundef nonnull align 4 dereferenceable(8) %1)
  ret ptr %8

34:                                               ; preds = %2
  %35 = landingpad { ptr, i32 }
          cleanup
  call void @_ZNSt12__shared_ptrIN6open3d4core19MemoryManagerDeviceELN9__gnu_cxx12_Lock_policyE2EED2Ev(ptr noundef nonnull align 8 dereferenceable(16) %3) #29
  call void @llvm.lifetime.end.p0(i64 16, ptr nonnull %3) #29
  resume { ptr, i32 } %35
}